target datalayout = "e-m:e-p270:32:32-p271:32:32-p272:64:64-i64:64-i128:128-f80:128-n8:16:32:64-S128"
target triple = "x86_64-pc-linux-gnu"

%class.btSequentialImpulseConstraintSolverMt = type { %class.btSequentialImpulseConstraintSolver, %struct.btBatchedConstraints, %struct.btBatchedConstraints, i32, i8, i8, [2 x i8], %class.btAlignedObjectArray.10, %class.btAlignedObjectArray.2, %class.btSpinMutex, [64 x i8], %class.btSpinMutex, %class.btAlignedObjectArray.8 }
%class.btSequentialImpulseConstraintSolver = type { %class.btConstraintSolver, %class.btAlignedObjectArray, %class.btAlignedObjectArray.0, %class.btAlignedObjectArray.0, %class.btAlignedObjectArray.0, %class.btAlignedObjectArray.0, %class.btAlignedObjectArray.2, %class.btAlignedObjectArray.2, %class.btAlignedObjectArray.2, %class.btAlignedObjectArray.4, i32, i32, %class.btAlignedObjectArray.2, ptr, ptr, ptr, i32, float, i64, %struct.btSolverAnalyticsData }
%class.btConstraintSolver = type { ptr }
%class.btAlignedObjectArray = type <{ [4 x i8], i32, i32, [4 x i8], ptr, i8, [7 x i8] }>
%class.btAlignedObjectArray.0 = type <{ [4 x i8], i32, i32, [4 x i8], ptr, i8, [7 x i8] }>
%class.btAlignedObjectArray.4 = type <{ [4 x i8], i32, i32, [4 x i8], ptr, i8, [7 x i8] }>
%struct.btSolverAnalyticsData = type { i32, i32, i32, i32, i32, double }
%struct.btBatchedConstraints = type { %class.btAlignedObjectArray.2, %class.btAlignedObjectArray.6, %class.btAlignedObjectArray.6, %class.btAlignedObjectArray.8, %class.btAlignedObjectArray.2, ptr }
%class.btAlignedObjectArray.6 = type <{ [4 x i8], i32, i32, [4 x i8], ptr, i8, [7 x i8] }>
%class.btAlignedObjectArray.10 = type <{ [4 x i8], i32, i32, [4 x i8], ptr, i8, [7 x i8] }>
%class.btAlignedObjectArray.2 = type <{ [4 x i8], i32, i32, [4 x i8], ptr, i8, [7 x i8] }>
%class.btSpinMutex = type { i32 }
%class.btAlignedObjectArray.8 = type <{ [4 x i8], i32, i32, [4 x i8], ptr, i8, [7 x i8] }>
%class.CProfileSample = type { i8 }
%class.btVector3 = type { [4 x float] }
%struct.btSolverConstraint = type { %class.btVector3, %class.btVector3, %class.btVector3, %class.btVector3, %class.btVector3, %class.btVector3, float, float, float, float, float, float, float, float, float, %union.anon.12, i32, i32, i32, i32 }
%union.anon.12 = type { ptr }
%"struct.btSequentialImpulseConstraintSolverMt::btContactManifoldCachedInfo" = type { i32, [2 x i32], i32, i32, [4 x i8], [4 x ptr] }

@.str.4 = private unnamed_addr constant [32 x i8] c"internalAllocContactConstraints\00", align 1

; Function Attrs: inlinehint mustprogress nounwind uwtable
define linkonce_odr dso_local noundef nonnull align 4 dereferenceable(4) ptr @_ZN20btAlignedObjectArrayIiEixEi(ptr noundef nonnull align 8 dereferenceable(25) %0, i32 noundef %1) #4 comdat align 2 {
  %3 = alloca ptr, align 8
  %4 = alloca i32, align 4
  store ptr %0, ptr %3, align 8, !tbaa !56
  store i32 %1, ptr %4, align 4, !tbaa !9
  %5 = load ptr, ptr %3, align 8
  %6 = getelementptr inbounds nuw %class.btAlignedObjectArray.2, ptr %5, i32 0, i32 4
  %7 = load ptr, ptr %6, align 8, !tbaa !106
  %8 = load i32, ptr %4, align 4, !tbaa !9
  %9 = sext i32 %8 to i64
  %10 = getelementptr inbounds i32, ptr %7, i64 %9
  ret ptr %10
}

; Function Attrs: inlinehint mustprogress nounwind uwtable
define linkonce_odr dso_local noundef nonnull align 8 dereferenceable(160) ptr @_ZN20btAlignedObjectArrayI18btSolverConstraintEixEi(ptr noundef nonnull align 8 dereferenceable(25) %0, i32 noundef %1) #4 comdat align 2 {
  %3 = alloca ptr, align 8
  %4 = alloca i32, align 4
  store ptr %0, ptr %3, align 8, !tbaa !98
  store i32 %1, ptr %4, align 4, !tbaa !9
  %5 = load ptr, ptr %3, align 8
  %6 = getelementptr inbounds nuw %class.btAlignedObjectArray.0, ptr %5, i32 0, i32 4
  %7 = load ptr, ptr %6, align 8, !tbaa !100
  %8 = load i32, ptr %4, align 4, !tbaa !9
  %9 = sext i32 %8 to i64
  %10 = getelementptr inbounds %struct.btSolverConstraint, ptr %7, i64 %9
  ret ptr %10
}

; Function Attrs: mustprogress uwtable
define dso_local void @_ZN37btSequentialImpulseConstraintSolverMt31internalAllocContactConstraintsEPKNS_27btContactManifoldCachedInfoEi(ptr noundef nonnull align 8 dereferenceable(920) %0, ptr noundef %1, i32 noundef %2) #2 align 2 personality ptr @__gxx_personality_v0 {
  %4 = alloca ptr, align 8
  %5 = alloca ptr, align 8
  %6 = alloca i32, align 4
  %7 = alloca %class.CProfileSample, align 1
  %8 = alloca i32, align 4
  %9 = alloca i32, align 4
  %10 = alloca ptr, align 8
  %11 = alloca i32, align 4
  %12 = alloca i32, align 4
  %13 = alloca i32, align 4
  %14 = alloca i32, align 4
  %15 = alloca ptr, align 8
  %16 = alloca ptr, align 8
  %17 = alloca i32, align 4
  %18 = alloca i32, align 4
  %19 = alloca ptr, align 8
  %20 = alloca i32, align 4
  store ptr %0, ptr %4, align 8, !tbaa !12
  store ptr %1, ptr %5, align 8, !tbaa !147
  store i32 %2, ptr %6, align 4, !tbaa !9
  %21 = load ptr, ptr %4, align 8
  call void @llvm.lifetime.start.p0(i64 1, ptr %7) #16
  call void @_ZN14CProfileSampleC1EPKc(ptr noundef nonnull align 1 dereferenceable(1) %7, ptr noundef @.str.4)
  call void @llvm.lifetime.start.p0(i64 4, ptr %8) #16
  store i32 0, ptr %8, align 4, !tbaa !9
  br label %22

22:                                               ; preds = %152, %3
  %23 = load i32, ptr %8, align 4, !tbaa !9
  %24 = load i32, ptr %6, align 4, !tbaa !9
  %25 = icmp slt i32 %23, %24
  br i1 %25, label %27, label %26

26:                                               ; preds = %22
  store i32 2, ptr %9, align 4
  call void @llvm.lifetime.end.p0(i64 4, ptr %8) #16
  br label %155

27:                                               ; preds = %22
  call void @llvm.lifetime.start.p0(i64 8, ptr %10) #16
  %28 = load ptr, ptr %5, align 8, !tbaa !147
  %29 = load i32, ptr %8, align 4, !tbaa !9
  %30 = sext i32 %29 to i64
  %31 = getelementptr inbounds %"struct.btSequentialImpulseConstraintSolverMt::btContactManifoldCachedInfo", ptr %28, i64 %30
  store ptr %31, ptr %10, align 8, !tbaa !147
  call void @llvm.lifetime.start.p0(i64 4, ptr %11) #16
  %32 = load ptr, ptr %10, align 8, !tbaa !147
  %33 = getelementptr inbounds nuw %"struct.btSequentialImpulseConstraintSolverMt::btContactManifoldCachedInfo", ptr %32, i32 0, i32 2
  %34 = load i32, ptr %33, align 4, !tbaa !164
  store i32 %34, ptr %11, align 4, !tbaa !9
  call void @llvm.lifetime.start.p0(i64 4, ptr %12) #16
  %35 = load i32, ptr %11, align 4, !tbaa !9
  %36 = getelementptr inbounds nuw %class.btSequentialImpulseConstraintSolverMt, ptr %21, i32 0, i32 3
  %37 = load i32, ptr %36, align 8, !tbaa !16
  %38 = mul nsw i32 %35, %37
  store i32 %38, ptr %12, align 4, !tbaa !9
  call void @llvm.lifetime.start.p0(i64 4, ptr %13) #16
  %39 = load ptr, ptr %10, align 8, !tbaa !147
  %40 = getelementptr inbounds nuw %"struct.btSequentialImpulseConstraintSolverMt::btContactManifoldCachedInfo", ptr %39, i32 0, i32 3
  %41 = load i32, ptr %40, align 8, !tbaa !165
  store i32 %41, ptr %13, align 4, !tbaa !9
  call void @llvm.lifetime.start.p0(i64 4, ptr %14) #16
  store i32 0, ptr %14, align 4, !tbaa !9
  br label %42

42:                                               ; preds = %147, %27
  %43 = load i32, ptr %14, align 4, !tbaa !9
  %44 = load ptr, ptr %10, align 8, !tbaa !147
  %45 = getelementptr inbounds nuw %"struct.btSequentialImpulseConstraintSolverMt::btContactManifoldCachedInfo", ptr %44, i32 0, i32 0
  %46 = load i32, ptr %45, align 8, !tbaa !153
  %47 = icmp slt i32 %43, %46
  br i1 %47, label %49, label %48

48:                                               ; preds = %42
  store i32 5, ptr %9, align 4
  call void @llvm.lifetime.end.p0(i64 4, ptr %14) #16
  br label %151

49:                                               ; preds = %42
  call void @llvm.lifetime.start.p0(i64 8, ptr %15) #16
  %50 = getelementptr inbounds nuw %class.btSequentialImpulseConstraintSolver, ptr %21, i32 0, i32 2
  %51 = load i32, ptr %11, align 4, !tbaa !9
  %52 = invoke noundef nonnull align 8 dereferenceable(160) ptr @_ZN20btAlignedObjectArrayI18btSolverConstraintEixEi(ptr noundef nonnull align 8 dereferenceable(25) %50, i32 noundef %51)
          to label %53 unwind label %83

53:                                               ; preds = %49
  store ptr %52, ptr %15, align 8, !tbaa !68
  %54 = load ptr, ptr %10, align 8, !tbaa !147
  %55 = getelementptr inbounds nuw %"struct.btSequentialImpulseConstraintSolverMt::btContactManifoldCachedInfo", ptr %54, i32 0, i32 1
  %56 = getelementptr inbounds [2 x i32], ptr %55, i64 0, i64 0
  %57 = load i32, ptr %56, align 4, !tbaa !9
  %58 = load ptr, ptr %15, align 8, !tbaa !68
  %59 = getelementptr inbounds nuw %struct.btSolverConstraint, ptr %58, i32 0, i32 18
  store i32 %57, ptr %59, align 8, !tbaa !69
  %60 = load ptr, ptr %10, align 8, !tbaa !147
  %61 = getelementptr inbounds nuw %"struct.btSequentialImpulseConstraintSolverMt::btContactManifoldCachedInfo", ptr %60, i32 0, i32 1
  %62 = getelementptr inbounds [2 x i32], ptr %61, i64 0, i64 1
  %63 = load i32, ptr %62, align 4, !tbaa !9
  %64 = load ptr, ptr %15, align 8, !tbaa !68
  %65 = getelementptr inbounds nuw %struct.btSolverConstraint, ptr %64, i32 0, i32 19
  store i32 %63, ptr %65, align 4, !tbaa !72
  %66 = load ptr, ptr %10, align 8, !tbaa !147
  %67 = getelementptr inbounds nuw %"struct.btSequentialImpulseConstraintSolverMt::btContactManifoldCachedInfo", ptr %66, i32 0, i32 5
  %68 = load i32, ptr %14, align 4, !tbaa !9
  %69 = sext i32 %68 to i64
  %70 = getelementptr inbounds [4 x ptr], ptr %67, i64 0, i64 %69
  %71 = load ptr, ptr %70, align 8, !tbaa !80
  %72 = load ptr, ptr %15, align 8, !tbaa !68
  %73 = getelementptr inbounds nuw %struct.btSolverConstraint, ptr %72, i32 0, i32 15
  store ptr %71, ptr %73, align 8, !tbaa !11
  %74 = load i32, ptr %12, align 4, !tbaa !9
  %75 = load ptr, ptr %15, align 8, !tbaa !68
  %76 = getelementptr inbounds nuw %struct.btSolverConstraint, ptr %75, i32 0, i32 17
  store i32 %74, ptr %76, align 4, !tbaa !89
  call void @llvm.lifetime.start.p0(i64 4, ptr %18) #16
  store i32 0, ptr %18, align 4, !tbaa !9
  br label %77

77:                                               ; preds = %97, %53
  %78 = load i32, ptr %18, align 4, !tbaa !9
  %79 = getelementptr inbounds nuw %class.btSequentialImpulseConstraintSolverMt, ptr %21, i32 0, i32 3
  %80 = load i32, ptr %79, align 8, !tbaa !16
  %81 = icmp slt i32 %78, %80
  br i1 %81, label %87, label %82

82:                                               ; preds = %77
  store i32 8, ptr %9, align 4
  call void @llvm.lifetime.end.p0(i64 4, ptr %18) #16
  br label %104

83:                                               ; preds = %139, %112, %49
  %84 = landingpad { ptr, i32 }
          cleanup
  %85 = extractvalue { ptr, i32 } %84, 0
  store ptr %85, ptr %16, align 8
  %86 = extractvalue { ptr, i32 } %84, 1
  store i32 %86, ptr %17, align 4
  br label %150

87:                                               ; preds = %77
  call void @llvm.lifetime.start.p0(i64 8, ptr %19) #16
  %88 = getelementptr inbounds nuw %class.btSequentialImpulseConstraintSolver, ptr %21, i32 0, i32 4
  %89 = load i32, ptr %12, align 4, !tbaa !9
  %90 = invoke noundef nonnull align 8 dereferenceable(160) ptr @_ZN20btAlignedObjectArrayI18btSolverConstraintEixEi(ptr noundef nonnull align 8 dereferenceable(25) %88, i32 noundef %89)
          to label %91 unwind label %100

91:                                               ; preds = %87
  store ptr %90, ptr %19, align 8, !tbaa !68
  %92 = load i32, ptr %11, align 4, !tbaa !9
  %93 = load ptr, ptr %19, align 8, !tbaa !68
  %94 = getelementptr inbounds nuw %struct.btSolverConstraint, ptr %93, i32 0, i32 17
  store i32 %92, ptr %94, align 4, !tbaa !89
  %95 = load i32, ptr %12, align 4, !tbaa !9
  %96 = add nsw i32 %95, 1
  store i32 %96, ptr %12, align 4, !tbaa !9
  call void @llvm.lifetime.end.p0(i64 8, ptr %19) #16
  br label %97

97:                                               ; preds = %91
  %98 = load i32, ptr %18, align 4, !tbaa !9
  %99 = add nsw i32 %98, 1
  store i32 %99, ptr %18, align 4, !tbaa !9
  br label %77, !llvm.loop !166

100:                                              ; preds = %87
  %101 = landingpad { ptr, i32 }
          cleanup
  %102 = extractvalue { ptr, i32 } %101, 0
  store ptr %102, ptr %16, align 8
  %103 = extractvalue { ptr, i32 } %101, 1
  store i32 %103, ptr %17, align 4
  call void @llvm.lifetime.end.p0(i64 8, ptr %19) #16
  call void @llvm.lifetime.end.p0(i64 4, ptr %18) #16
  br label %150

104:                                              ; preds = %82
  %105 = load ptr, ptr %10, align 8, !tbaa !147
  %106 = getelementptr inbounds nuw %"struct.btSequentialImpulseConstraintSolverMt::btContactManifoldCachedInfo", ptr %105, i32 0, i32 4
  %107 = load i32, ptr %14, align 4, !tbaa !9
  %108 = sext i32 %107 to i64
  %109 = getelementptr inbounds [4 x i8], ptr %106, i64 0, i64 %108
  %110 = load i8, ptr %109, align 1, !tbaa !131, !range !109, !noundef !110
  %111 = trunc i8 %110 to i1
  br i1 %111, label %112, label %139

112:                                              ; preds = %104
  %113 = load i32, ptr %13, align 4, !tbaa !9
  %114 = getelementptr inbounds nuw %class.btSequentialImpulseConstraintSolverMt, ptr %21, i32 0, i32 8
  %115 = load i32, ptr %11, align 4, !tbaa !9
  %116 = invoke noundef nonnull align 4 dereferenceable(4) ptr @_ZN20btAlignedObjectArrayIiEixEi(ptr noundef nonnull align 8 dereferenceable(25) %114, i32 noundef %115)
          to label %117 unwind label %83

117:                                              ; preds = %112
  store i32 %113, ptr %116, align 4, !tbaa !9
  call void @llvm.lifetime.start.p0(i64 4, ptr %20) #16
  store i32 0, ptr %20, align 4, !tbaa !9
  br label %118

118:                                              ; preds = %131, %117
  %119 = load i32, ptr %20, align 4, !tbaa !9
  %120 = icmp slt i32 %119, 3
  br i1 %120, label %122, label %121

121:                                              ; preds = %118
  store i32 11, ptr %9, align 4
  call void @llvm.lifetime.end.p0(i64 4, ptr %20) #16
  br label %138

122:                                              ; preds = %118
  %123 = load i32, ptr %11, align 4, !tbaa !9
  %124 = getelementptr inbounds nuw %class.btSequentialImpulseConstraintSolver, ptr %21, i32 0, i32 5
  %125 = load i32, ptr %13, align 4, !tbaa !9
  %126 = invoke noundef nonnull align 8 dereferenceable(160) ptr @_ZN20btAlignedObjectArrayI18btSolverConstraintEixEi(ptr noundef nonnull align 8 dereferenceable(25) %124, i32 noundef %125)
          to label %127 unwind label %134

127:                                              ; preds = %122
  %128 = getelementptr inbounds nuw %struct.btSolverConstraint, ptr %126, i32 0, i32 17
  store i32 %123, ptr %128, align 4, !tbaa !89
  %129 = load i32, ptr %13, align 4, !tbaa !9
  %130 = add nsw i32 %129, 1
  store i32 %130, ptr %13, align 4, !tbaa !9
  br label %131

131:                                              ; preds = %127
  %132 = load i32, ptr %20, align 4, !tbaa !9
  %133 = add nsw i32 %132, 1
  store i32 %133, ptr %20, align 4, !tbaa !9
  br label %118, !llvm.loop !167

134:                                              ; preds = %122
  %135 = landingpad { ptr, i32 }
          cleanup
  %136 = extractvalue { ptr, i32 } %135, 0
  store ptr %136, ptr %16, align 8
  %137 = extractvalue { ptr, i32 } %135, 1
  store i32 %137, ptr %17, align 4
  call void @llvm.lifetime.end.p0(i64 4, ptr %20) #16
  br label %150

138:                                              ; preds = %121
  br label %144

139:                                              ; preds = %104
  %140 = getelementptr inbounds nuw %class.btSequentialImpulseConstraintSolverMt, ptr %21, i32 0, i32 8
  %141 = load i32, ptr %11, align 4, !tbaa !9
  %142 = invoke noundef nonnull align 4 dereferenceable(4) ptr @_ZN20btAlignedObjectArrayIiEixEi(ptr noundef nonnull align 8 dereferenceable(25) %140, i32 noundef %141)
          to label %143 unwind label %83

143:                                              ; preds = %139
  store i32 -1, ptr %142, align 4, !tbaa !9
  br label %144

144:                                              ; preds = %143, %138
  %145 = load i32, ptr %11, align 4, !tbaa !9
  %146 = add nsw i32 %145, 1
  store i32 %146, ptr %11, align 4, !tbaa !9
  call void @llvm.lifetime.end.p0(i64 8, ptr %15) #16
  br label %147

147:                                              ; preds = %144
  %148 = load i32, ptr %14, align 4, !tbaa !9
  %149 = add nsw i32 %148, 1
  store i32 %149, ptr %14, align 4, !tbaa !9
  br label %42, !llvm.loop !168

150:                                              ; preds = %134, %100, %83
  call void @llvm.lifetime.end.p0(i64 8, ptr %15) #16
  call void @llvm.lifetime.end.p0(i64 4, ptr %14) #16
  call void @llvm.lifetime.end.p0(i64 4, ptr %13) #16
  call void @llvm.lifetime.end.p0(i64 4, ptr %12) #16
  call void @llvm.lifetime.end.p0(i64 4, ptr %11) #16
  call void @llvm.lifetime.end.p0(i64 8, ptr %10) #16
  call void @llvm.lifetime.end.p0(i64 4, ptr %8) #16
  call void @_ZN14CProfileSampleD1Ev(ptr noundef nonnull align 1 dereferenceable(1) %7) #16
  call void @llvm.lifetime.end.p0(i64 1, ptr %7) #16
  br label %156

151:                                              ; preds = %48
  call void @llvm.lifetime.end.p0(i64 4, ptr %13) #16
  call void @llvm.lifetime.end.p0(i64 4, ptr %12) #16
  call void @llvm.lifetime.end.p0(i64 4, ptr %11) #16
  call void @llvm.lifetime.end.p0(i64 8, ptr %10) #16
  br label %152

152:                                              ; preds = %151
  %153 = load i32, ptr %8, align 4, !tbaa !9
  %154 = add nsw i32 %153, 1
  store i32 %154, ptr %8, align 4, !tbaa !9
  br label %22, !llvm.loop !169

155:                                              ; preds = %26
  call void @_ZN14CProfileSampleD1Ev(ptr noundef nonnull align 1 dereferenceable(1) %7) #16
  call void @llvm.lifetime.end.p0(i64 1, ptr %7) #16
  ret void

156:                                              ; preds = %150
  %157 = load ptr, ptr %16, align 8
  %158 = load i32, ptr %17, align 4
  %159 = insertvalue { ptr, i32 } poison, ptr %157, 0
  %160 = insertvalue { ptr, i32 } %159, i32 %158, 1
  resume { ptr, i32 } %160
}