; Function Attrs: mustprogress uwtable
define dso_local void @_ZN37btSequentialImpulseConstraintSolverMt31internalAllocContactConstraintsEPKNS_27btContactManifoldCachedInfoEi(ptr noundef nonnull readonly align 8 captures(none) dereferenceable(920) %0, ptr noundef readonly captures(none) %1, i32 noundef %2) local_unnamed_addr #0 align 2 personality ptr @__gxx_personality_v0 {
  %4 = alloca %class.CProfileSample, align 1
  call void @llvm.lifetime.start.p0(i64 1, ptr nonnull %4) #16
  call void @_ZN14CProfileSampleC1EPKc(ptr noundef nonnull align 1 dereferenceable(1) %4, ptr noundef nonnull @.str.4)
  %5 = icmp sgt i32 %2, 0
  br i1 %5, label %.lr.ph58, label %._crit_edge59

.lr.ph58:                                         ; preds = %3
  %6 = getelementptr inbounds nuw i8, ptr %0, i64 744
  %7 = getelementptr inbounds nuw i8, ptr %0, i64 56
  %8 = getelementptr inbounds nuw i8, ptr %0, i64 120
  %9 = getelementptr inbounds nuw i8, ptr %0, i64 800
  %10 = getelementptr inbounds nuw i8, ptr %0, i64 152
  %wide.trip.count = zext nneg i32 %2 to i64
  br label %11

._crit_edge59:                                    ; preds = %._crit_edge55, %3
  call void @_ZN14CProfileSampleD1Ev(ptr noundef nonnull align 1 dereferenceable(1) %4) #16
  call void @llvm.lifetime.end.p0(i64 1, ptr nonnull %4) #16
  ret void

11:                                               ; preds = %.lr.ph58, %._crit_edge55
  %indvars.iv73 = phi i64 [ 0, %.lr.ph58 ], [ %indvars.iv.next74, %._crit_edge55 ]
  %12 = getelementptr inbounds nuw %"struct.btSequentialImpulseConstraintSolverMt::btContactManifoldCachedInfo", ptr %1, i64 %indvars.iv73
  %13 = load i32, ptr %12, align 8, !tbaa !132
  %14 = icmp sgt i32 %13, 0
  br i1 %14, label %.lr.ph54, label %._crit_edge55

.lr.ph54:                                         ; preds = %11
  %15 = getelementptr inbounds nuw i8, ptr %12, i64 16
  %16 = load i32, ptr %15, align 8, !tbaa !142
  %17 = load i32, ptr %6, align 8, !tbaa !44
  %18 = getelementptr inbounds nuw i8, ptr %12, i64 12
  %19 = load i32, ptr %18, align 4, !tbaa !143
  %20 = mul nsw i32 %17, %19
  %21 = getelementptr inbounds nuw i8, ptr %12, i64 4
  %22 = getelementptr inbounds nuw i8, ptr %12, i64 8
  %23 = getelementptr inbounds nuw i8, ptr %12, i64 24
  %24 = getelementptr inbounds nuw i8, ptr %12, i64 20
  %25 = sext i32 %19 to i64
  br label %26

._crit_edge55:                                    ; preds = %.loopexit, %11
  %indvars.iv.next74 = add nuw nsw i64 %indvars.iv73, 1
  %exitcond76.not = icmp eq i64 %indvars.iv.next74, %wide.trip.count
  br i1 %exitcond76.not, label %._crit_edge59, label %11, !llvm.loop !144

26:                                               ; preds = %.lr.ph54, %.loopexit
  %indvars.iv68 = phi i64 [ %25, %.lr.ph54 ], [ %indvars.iv.next69, %.loopexit ]
  %indvars.iv66 = phi i64 [ 0, %.lr.ph54 ], [ %indvars.iv.next67, %.loopexit ]
  %.04151 = phi i32 [ %16, %.lr.ph54 ], [ %.2, %.loopexit ]
  %.04250 = phi i32 [ %20, %.lr.ph54 ], [ %.143.lcssa, %.loopexit ]
  %27 = load ptr, ptr %7, align 8, !tbaa !68
  %28 = getelementptr inbounds %struct.btSolverConstraint, ptr %27, i64 %indvars.iv68
  %29 = load i32, ptr %21, align 4, !tbaa !67
  %30 = getelementptr inbounds nuw i8, ptr %28, i64 152
  store i32 %29, ptr %30, align 8, !tbaa !69
  %31 = load i32, ptr %22, align 4, !tbaa !67
  %32 = getelementptr inbounds nuw i8, ptr %28, i64 156
  store i32 %31, ptr %32, align 4, !tbaa !72
  %33 = getelementptr inbounds nuw [4 x ptr], ptr %23, i64 0, i64 %indvars.iv66
  %34 = load ptr, ptr %33, align 8, !tbaa !138
  %35 = getelementptr inbounds nuw i8, ptr %28, i64 136
  store ptr %34, ptr %35, align 8, !tbaa !79
  %36 = getelementptr inbounds nuw i8, ptr %28, i64 148
  store i32 %.04250, ptr %36, align 4, !tbaa !85
  %37 = load i32, ptr %6, align 8, !tbaa !44
  %38 = icmp sgt i32 %37, 0
  br i1 %38, label %.lr.ph, label %._crit_edge

.lr.ph:                                           ; preds = %26
  %39 = load ptr, ptr %8, align 8, !tbaa !68
  %40 = sext i32 %.04250 to i64
  %41 = trunc nsw i64 %indvars.iv68 to i32
  br label %48

._crit_edge.loopexit:                             ; preds = %48
  %42 = trunc nsw i64 %indvars.iv.next to i32
  br label %._crit_edge

._crit_edge:                                      ; preds = %._crit_edge.loopexit, %26
  %.143.lcssa = phi i32 [ %.04250, %26 ], [ %42, %._crit_edge.loopexit ]
  %43 = getelementptr inbounds nuw [4 x i8], ptr %24, i64 0, i64 %indvars.iv66
  %44 = load i8, ptr %43, align 1, !tbaa !140, !range !63, !noundef !64
  %45 = trunc nuw i8 %44 to i1
  %46 = load ptr, ptr %9, align 8, !tbaa !15
  %47 = getelementptr inbounds i32, ptr %46, i64 %indvars.iv68
  br i1 %45, label %51, label %58

48:                                               ; preds = %.lr.ph, %48
  %indvars.iv = phi i64 [ %40, %.lr.ph ], [ %indvars.iv.next, %48 ]
  %.03946 = phi i32 [ 0, %.lr.ph ], [ %50, %48 ]
  %49 = getelementptr inbounds %struct.btSolverConstraint, ptr %39, i64 %indvars.iv, i32 17
  store i32 %41, ptr %49, align 4, !tbaa !85
  %indvars.iv.next = add nsw i64 %indvars.iv, 1
  %50 = add nuw nsw i32 %.03946, 1
  %exitcond.not = icmp eq i32 %50, %37
  br i1 %exitcond.not, label %._crit_edge.loopexit, label %48, !llvm.loop !145

51:                                               ; preds = %._crit_edge
  store i32 %.04151, ptr %47, align 4, !tbaa !67
  %52 = load ptr, ptr %10, align 8, !tbaa !68
  %53 = sext i32 %.04151 to i64
  %54 = trunc nsw i64 %indvars.iv68 to i32
  br label %55

55:                                               ; preds = %51, %55
  %indvars.iv62 = phi i64 [ %53, %51 ], [ %indvars.iv.next63, %55 ]
  %.048 = phi i32 [ 0, %51 ], [ %57, %55 ]
  %56 = getelementptr inbounds %struct.btSolverConstraint, ptr %52, i64 %indvars.iv62, i32 17
  store i32 %54, ptr %56, align 4, !tbaa !85
  %indvars.iv.next63 = add nsw i64 %indvars.iv62, 1
  %57 = add nuw nsw i32 %.048, 1
  %exitcond65.not = icmp eq i32 %57, 3
  br i1 %exitcond65.not, label %.loopexit.loopexit, label %55, !llvm.loop !146

58:                                               ; preds = %._crit_edge
  store i32 -1, ptr %47, align 4, !tbaa !67
  br label %.loopexit

.loopexit.loopexit:                               ; preds = %55
  %59 = trunc nsw i64 %indvars.iv.next63 to i32
  br label %.loopexit

.loopexit:                                        ; preds = %.loopexit.loopexit, %58
  %.2 = phi i32 [ %.04151, %58 ], [ %59, %.loopexit.loopexit ]
  %indvars.iv.next69 = add nsw i64 %indvars.iv68, 1
  %indvars.iv.next67 = add nuw nsw i64 %indvars.iv66, 1
  %60 = load i32, ptr %12, align 8, !tbaa !132
  %61 = sext i32 %60 to i64
  %62 = icmp slt i64 %indvars.iv.next67, %61
  br i1 %62, label %26, label %._crit_edge55, !llvm.loop !147
}